; Function Attrs: nounwind uwtable
define range(i32 -1, 2) i32 @CRYPTO_ocb128_tag(ptr noundef readonly captures(none) %0, ptr noundef writeonly captures(none) %1, i64 noundef %2) local_unnamed_addr #0 {
  %4 = alloca %union.OCB_BLOCK, align 8
  call void @llvm.lifetime.start.p0(i64 16, ptr nonnull %4) #6
  %5 = add i64 %2, -17
  %or.cond.i = icmp ult i64 %5, -16
  br i1 %or.cond.i, label %ocb_finish.exit, label %6

6:                                                ; preds = %3
  %7 = getelementptr inbounds nuw i8, ptr %0, i64 160
  %8 = load i64, ptr %7, align 8, !tbaa !17
  %9 = getelementptr inbounds nuw i8, ptr %0, i64 144
  %10 = load i64, ptr %9, align 8, !tbaa !17
  %11 = xor i64 %10, %8
  %12 = getelementptr inbounds nuw i8, ptr %0, i64 168
  %13 = load i64, ptr %12, align 8, !tbaa !17
  %14 = getelementptr inbounds nuw i8, ptr %0, i64 152
  %15 = load i64, ptr %14, align 8, !tbaa !17
  %16 = xor i64 %15, %13
  %17 = getelementptr inbounds nuw i8, ptr %4, i64 8
  %18 = getelementptr inbounds nuw i8, ptr %0, i64 72
  %19 = load i64, ptr %18, align 8, !tbaa !17
  %20 = xor i64 %11, %19
  store i64 %20, ptr %4, align 8, !tbaa !17
  %21 = getelementptr inbounds nuw i8, ptr %0, i64 80
  %22 = load i64, ptr %21, align 8, !tbaa !17
  %23 = xor i64 %16, %22
  store i64 %23, ptr %17, align 8, !tbaa !17
  %24 = load ptr, ptr %0, align 8, !tbaa !12
  %25 = getelementptr inbounds nuw i8, ptr %0, i64 16
  %26 = load ptr, ptr %25, align 8, !tbaa !15
  call void %24(ptr noundef nonnull %4, ptr noundef nonnull %4, ptr noundef %26) #6
  %27 = load i64, ptr %4, align 8, !tbaa !17
  %28 = getelementptr inbounds nuw i8, ptr %0, i64 128
  %29 = load i64, ptr %28, align 8, !tbaa !17
  %30 = xor i64 %29, %27
  store i64 %30, ptr %4, align 8, !tbaa !17
  %31 = load i64, ptr %17, align 8, !tbaa !17
  %32 = getelementptr inbounds nuw i8, ptr %0, i64 136
  %33 = load i64, ptr %32, align 8, !tbaa !17
  %34 = xor i64 %33, %31
  store i64 %34, ptr %17, align 8, !tbaa !17
  call void @llvm.memcpy.p0.p0.i64(ptr align 1 %1, ptr nonnull align 8 %4, i64 %2, i1 false)
  br label %ocb_finish.exit

ocb_finish.exit:                                  ; preds = %3, %6
  %.0.i = phi i32 [ 1, %6 ], [ -1, %3 ]
  call void @llvm.lifetime.end.p0(i64 16, ptr nonnull %4) #6
  ret i32 %.0.i
}